target datalayout = "e-m:e-p270:32:32-p271:32:32-p272:64:64-i64:64-i128:128-f80:128-n8:16:32:64-S128"
target triple = "x86_64-pc-linux-gnu"

%struct.WavPackEncodeContext = type { ptr, ptr, %struct.PutBitContext, i32, i32, i32, i32, i32, i32, [2 x ptr], [2 x i32], [18 x [2 x ptr]], [18 x [2 x i32]], [2 x [2 x ptr]], [2 x [2 x i32]], [2 x ptr], [2 x i32], ptr, ptr, i32, i32, ptr, ptr, i32, i32, i32, i32, i32, i32, i32, i32, i32, %struct.WavPackWords, i8, i8, i8, i8, i8, i8, i8, i8, i32, i32, i32, i32, i32, i32, i32, i32, i32, i32, i32, i32, i32, i32, [16 x %struct.Decorr], ptr, float }
%struct.PutBitContext = type { i32, i32, ptr, ptr, ptr }
%struct.WavPackWords = type { i32, i32, i32, i32, i32, [2 x %struct.WvChannel] }
%struct.WvChannel = type { [3 x i32], i32, i32, i32, i32 }
%struct.Decorr = type { i32, i32, i32, i32, [8 x i32], [8 x i32], i32, i32 }

; Function Attrs: nounwind uwtable
define internal void @process_float(ptr noundef %0, ptr noundef %1) #1 {
  %3 = alloca ptr, align 8
  %4 = alloca ptr, align 8
  %5 = alloca i32, align 4
  %6 = alloca i32, align 4
  %7 = alloca i32, align 4
  %8 = alloca i32, align 4
  store ptr %0, ptr %3, align 8, !tbaa !29
  store ptr %1, ptr %4, align 8, !tbaa !58
  call void @llvm.lifetime.start.p0(i64 4, ptr %5) #11
  call void @llvm.lifetime.start.p0(i64 4, ptr %6) #11
  call void @llvm.lifetime.start.p0(i64 4, ptr %7) #11
  %9 = load ptr, ptr %4, align 8, !tbaa !58
  %10 = load i32, ptr %9, align 4, !tbaa !39
  store i32 %10, ptr %7, align 4, !tbaa !39
  %11 = load i32, ptr %7, align 4, !tbaa !39
  %12 = ashr i32 %11, 23
  %13 = and i32 %12, 255
  %14 = icmp eq i32 %13, 255
  br i1 %14, label %15, label %22

15:                                               ; preds = %2
  %16 = load ptr, ptr %3, align 8, !tbaa !29
  %17 = getelementptr inbounds nuw %struct.WavPackEncodeContext, ptr %16, i32 0, i32 37
  %18 = load i8, ptr %17, align 4, !tbaa !115
  %19 = zext i8 %18 to i32
  %20 = or i32 %19, 32
  %21 = trunc i32 %20 to i8
  store i8 %21, ptr %17, align 4, !tbaa !115
  store i32 16777216, ptr %6, align 4, !tbaa !39
  store i32 0, ptr %5, align 4, !tbaa !39
  br label %57

22:                                               ; preds = %2
  %23 = load i32, ptr %7, align 4, !tbaa !39
  %24 = ashr i32 %23, 23
  %25 = and i32 %24, 255
  %26 = icmp ne i32 %25, 0
  br i1 %26, label %27, label %39

27:                                               ; preds = %22
  %28 = load ptr, ptr %3, align 8, !tbaa !29
  %29 = getelementptr inbounds nuw %struct.WavPackEncodeContext, ptr %28, i32 0, i32 40
  %30 = load i8, ptr %29, align 1, !tbaa !138
  %31 = zext i8 %30 to i32
  %32 = load i32, ptr %7, align 4, !tbaa !39
  %33 = ashr i32 %32, 23
  %34 = and i32 %33, 255
  %35 = sub nsw i32 %31, %34
  store i32 %35, ptr %5, align 4, !tbaa !39
  %36 = load i32, ptr %7, align 4, !tbaa !39
  %37 = and i32 %36, 8388607
  %38 = add nsw i32 8388608, %37
  store i32 %38, ptr %6, align 4, !tbaa !39
  br label %56

39:                                               ; preds = %22
  %40 = load ptr, ptr %3, align 8, !tbaa !29
  %41 = getelementptr inbounds nuw %struct.WavPackEncodeContext, ptr %40, i32 0, i32 40
  %42 = load i8, ptr %41, align 1, !tbaa !138
  %43 = zext i8 %42 to i32
  %44 = icmp ne i32 %43, 0
  br i1 %44, label %45, label %51

45:                                               ; preds = %39
  %46 = load ptr, ptr %3, align 8, !tbaa !29
  %47 = getelementptr inbounds nuw %struct.WavPackEncodeContext, ptr %46, i32 0, i32 40
  %48 = load i8, ptr %47, align 1, !tbaa !138
  %49 = zext i8 %48 to i32
  %50 = sub nsw i32 %49, 1
  br label %52

51:                                               ; preds = %39
  br label %52

52:                                               ; preds = %51, %45
  %53 = phi i32 [ %50, %45 ], [ 0, %51 ]
  store i32 %53, ptr %5, align 4, !tbaa !39
  %54 = load i32, ptr %7, align 4, !tbaa !39
  %55 = and i32 %54, 8388607
  store i32 %55, ptr %6, align 4, !tbaa !39
  br label %56

56:                                               ; preds = %52, %27
  br label %57

57:                                               ; preds = %56, %15
  %58 = load i32, ptr %5, align 4, !tbaa !39
  %59 = icmp slt i32 %58, 25
  br i1 %59, label %60, label %64

60:                                               ; preds = %57
  %61 = load i32, ptr %5, align 4, !tbaa !39
  %62 = load i32, ptr %6, align 4, !tbaa !39
  %63 = ashr i32 %62, %61
  store i32 %63, ptr %6, align 4, !tbaa !39
  br label %65

64:                                               ; preds = %57
  store i32 0, ptr %6, align 4, !tbaa !39
  br label %65

65:                                               ; preds = %64, %60
  %66 = load i32, ptr %6, align 4, !tbaa !39
  %67 = icmp ne i32 %66, 0
  br i1 %67, label %94, label %68

68:                                               ; preds = %65
  %69 = load i32, ptr %7, align 4, !tbaa !39
  %70 = ashr i32 %69, 23
  %71 = and i32 %70, 255
  %72 = icmp ne i32 %71, 0
  br i1 %72, label %77, label %73

73:                                               ; preds = %68
  %74 = load i32, ptr %7, align 4, !tbaa !39
  %75 = and i32 %74, 8388607
  %76 = icmp ne i32 %75, 0
  br i1 %76, label %77, label %82

77:                                               ; preds = %73, %68
  %78 = load ptr, ptr %3, align 8, !tbaa !29
  %79 = getelementptr inbounds nuw %struct.WavPackEncodeContext, ptr %78, i32 0, i32 44
  %80 = load i32, ptr %79, align 4, !tbaa !137
  %81 = add nsw i32 %80, 1
  store i32 %81, ptr %79, align 4, !tbaa !137
  br label %93

82:                                               ; preds = %73
  %83 = load i32, ptr %7, align 4, !tbaa !39
  %84 = ashr i32 %83, 31
  %85 = and i32 %84, 1
  %86 = icmp ne i32 %85, 0
  br i1 %86, label %87, label %92

87:                                               ; preds = %82
  %88 = load ptr, ptr %3, align 8, !tbaa !29
  %89 = getelementptr inbounds nuw %struct.WavPackEncodeContext, ptr %88, i32 0, i32 45
  %90 = load i32, ptr %89, align 8, !tbaa !136
  %91 = add nsw i32 %90, 1
  store i32 %91, ptr %89, align 8, !tbaa !136
  br label %92

92:                                               ; preds = %87, %82
  br label %93

93:                                               ; preds = %92, %77
  br label %131

94:                                               ; preds = %65
  %95 = load i32, ptr %5, align 4, !tbaa !39
  %96 = icmp ne i32 %95, 0
  br i1 %96, label %97, label %130

97:                                               ; preds = %94
  call void @llvm.lifetime.start.p0(i64 4, ptr %8) #11
  %98 = load i32, ptr %5, align 4, !tbaa !39
  %99 = shl i32 1, %98
  %100 = sub nsw i32 %99, 1
  store i32 %100, ptr %8, align 4, !tbaa !39
  %101 = load i32, ptr %7, align 4, !tbaa !39
  %102 = and i32 %101, 8388607
  %103 = load i32, ptr %8, align 4, !tbaa !39
  %104 = and i32 %102, %103
  %105 = icmp ne i32 %104, 0
  br i1 %105, label %111, label %106

106:                                              ; preds = %97
  %107 = load ptr, ptr %3, align 8, !tbaa !29
  %108 = getelementptr inbounds nuw %struct.WavPackEncodeContext, ptr %107, i32 0, i32 42
  %109 = load i32, ptr %108, align 4, !tbaa !134
  %110 = add nsw i32 %109, 1
  store i32 %110, ptr %108, align 4, !tbaa !134
  br label %129

111:                                              ; preds = %97
  %112 = load i32, ptr %7, align 4, !tbaa !39
  %113 = and i32 %112, 8388607
  %114 = load i32, ptr %8, align 4, !tbaa !39
  %115 = and i32 %113, %114
  %116 = load i32, ptr %8, align 4, !tbaa !39
  %117 = icmp eq i32 %115, %116
  br i1 %117, label %118, label %123

118:                                              ; preds = %111
  %119 = load ptr, ptr %3, align 8, !tbaa !29
  %120 = getelementptr inbounds nuw %struct.WavPackEncodeContext, ptr %119, i32 0, i32 41
  %121 = load i32, ptr %120, align 8, !tbaa !135
  %122 = add nsw i32 %121, 1
  store i32 %122, ptr %120, align 8, !tbaa !135
  br label %128

123:                                              ; preds = %111
  %124 = load ptr, ptr %3, align 8, !tbaa !29
  %125 = getelementptr inbounds nuw %struct.WavPackEncodeContext, ptr %124, i32 0, i32 43
  %126 = load i32, ptr %125, align 8, !tbaa !133
  %127 = add nsw i32 %126, 1
  store i32 %127, ptr %125, align 8, !tbaa !133
  br label %128

128:                                              ; preds = %123, %118
  br label %129

129:                                              ; preds = %128, %106
  call void @llvm.lifetime.end.p0(i64 4, ptr %8) #11
  br label %130

130:                                              ; preds = %129, %94
  br label %131

131:                                              ; preds = %130, %93
  %132 = load i32, ptr %6, align 4, !tbaa !39
  %133 = load ptr, ptr %3, align 8, !tbaa !29
  %134 = getelementptr inbounds nuw %struct.WavPackEncodeContext, ptr %133, i32 0, i32 46
  %135 = load i32, ptr %134, align 4, !tbaa !132
  %136 = or i32 %135, %132
  store i32 %136, ptr %134, align 4, !tbaa !132
  %137 = load i32, ptr %7, align 4, !tbaa !39
  %138 = ashr i32 %137, 31
  %139 = and i32 %138, 1
  %140 = icmp ne i32 %139, 0
  br i1 %140, label %141, label %144

141:                                              ; preds = %131
  %142 = load i32, ptr %6, align 4, !tbaa !39
  %143 = sub nsw i32 0, %142
  br label %146

144:                                              ; preds = %131
  %145 = load i32, ptr %6, align 4, !tbaa !39
  br label %146

146:                                              ; preds = %144, %141
  %147 = phi i32 [ %143, %141 ], [ %145, %144 ]
  %148 = load ptr, ptr %4, align 8, !tbaa !58
  store i32 %147, ptr %148, align 4, !tbaa !39
  call void @llvm.lifetime.end.p0(i64 4, ptr %7) #11
  call void @llvm.lifetime.end.p0(i64 4, ptr %6) #11
  call void @llvm.lifetime.end.p0(i64 4, ptr %5) #11
  ret void
}