; Function Attrs: mustprogress nofree norecurse nosync nounwind willreturn memory(argmem: readwrite) uwtable
define internal fastcc void @process_float(ptr noundef captures(none) %0, ptr noundef captures(none) %1) unnamed_addr #8 {
  %3 = load i32, ptr %1, align 4, !tbaa !58
  %4 = lshr i32 %3, 23
  %5 = and i32 %4, 255
  %trunc = trunc i32 %4 to i8
  switch i8 %trunc, label %9 [
    i8 -1, label %.thread55.thread
    i8 0, label %16
  ]

.thread55.thread:                                 ; preds = %2
  %6 = getelementptr inbounds nuw i8, ptr %0, i64 756
  %7 = load i8, ptr %6, align 4, !tbaa !79
  %8 = or i8 %7, 32
  store i8 %8, ptr %6, align 4, !tbaa !79
  br label %.thread59

9:                                                ; preds = %2
  %10 = getelementptr inbounds nuw i8, ptr %0, i64 759
  %11 = load i8, ptr %10, align 1, !tbaa !81
  %12 = zext i8 %11 to i32
  %13 = sub nsw i32 %12, %5
  %14 = and i32 %3, 8388607
  %15 = or disjoint i32 %14, 8388608
  br label %22

16:                                               ; preds = %2
  %17 = getelementptr inbounds nuw i8, ptr %0, i64 759
  %18 = load i8, ptr %17, align 1, !tbaa !81
  %.not38 = icmp eq i8 %18, 0
  %19 = zext i8 %18 to i32
  %20 = add nsw i32 %19, -1
  %21 = and i32 %3, 8388607
  br i1 %.not38, label %.thread55, label %22

22:                                               ; preds = %16, %9
  %.034 = phi i32 [ %15, %9 ], [ %21, %16 ]
  %.0 = phi i32 [ %13, %9 ], [ %20, %16 ]
  %.0.fr = freeze i32 %.0
  %23 = icmp sgt i32 %.0.fr, 24
  %24 = lshr i32 %.034, %.0.fr
  %.not39 = icmp eq i32 %24, 0
  %or.cond65 = select i1 %23, i1 true, i1 %.not39
  br i1 %or.cond65, label %..thread52_crit_edge, label %35

..thread52_crit_edge:                             ; preds = %22
  %.pre = and i32 %3, 8388607
  br label %.thread52

.thread55:                                        ; preds = %16
  %.not3957 = icmp eq i32 %21, 0
  br i1 %.not3957, label %.thread52, label %.thread59

.thread52:                                        ; preds = %..thread52_crit_edge, %.thread55
  %.pre-phi = phi i32 [ %.pre, %..thread52_crit_edge ], [ 0, %.thread55 ]
  %25 = or i32 %5, %.pre-phi
  %or.cond = icmp eq i32 %25, 0
  br i1 %or.cond, label %30, label %26

26:                                               ; preds = %.thread52
  %27 = getelementptr inbounds nuw i8, ptr %0, i64 772
  %28 = load i32, ptr %27, align 4, !tbaa !94
  %29 = add nsw i32 %28, 1
  store i32 %29, ptr %27, align 4, !tbaa !94
  br label %.thread59

30:                                               ; preds = %.thread52
  %.not42 = icmp sgt i32 %3, -1
  br i1 %.not42, label %.thread59, label %31

31:                                               ; preds = %30
  %32 = getelementptr inbounds nuw i8, ptr %0, i64 776
  %33 = load i32, ptr %32, align 8, !tbaa !95
  %34 = add nsw i32 %33, 1
  store i32 %34, ptr %32, align 8, !tbaa !95
  br label %.thread59

35:                                               ; preds = %22
  %.not43 = icmp eq i32 %.0.fr, 0
  br i1 %.not43, label %.thread59, label %36

36:                                               ; preds = %35
  %notmask = shl nsw i32 -1, %.0.fr
  %37 = xor i32 %notmask, -1
  %38 = and i32 %3, 8388607
  %39 = and i32 %38, %37
  %.not44 = icmp eq i32 %39, 0
  br i1 %.not44, label %40, label %44

40:                                               ; preds = %36
  %41 = getelementptr inbounds nuw i8, ptr %0, i64 764
  %42 = load i32, ptr %41, align 4, !tbaa !90
  %43 = add nsw i32 %42, 1
  store i32 %43, ptr %41, align 4, !tbaa !90
  br label %.thread59

44:                                               ; preds = %36
  %45 = icmp eq i32 %39, %37
  br i1 %45, label %46, label %50

46:                                               ; preds = %44
  %47 = getelementptr inbounds nuw i8, ptr %0, i64 760
  %48 = load i32, ptr %47, align 8, !tbaa !89
  %49 = add nsw i32 %48, 1
  store i32 %49, ptr %47, align 8, !tbaa !89
  br label %.thread59

50:                                               ; preds = %44
  %51 = getelementptr inbounds nuw i8, ptr %0, i64 768
  %52 = load i32, ptr %51, align 8, !tbaa !88
  %53 = add nsw i32 %52, 1
  store i32 %53, ptr %51, align 8, !tbaa !88
  br label %.thread59

.thread59:                                        ; preds = %.thread55, %.thread55.thread, %40, %50, %46, %35, %26, %31, %30
  %54 = phi i32 [ %24, %40 ], [ %24, %50 ], [ %24, %46 ], [ %24, %35 ], [ 0, %26 ], [ 0, %31 ], [ 0, %30 ], [ 16777216, %.thread55.thread ], [ %21, %.thread55 ]
  %55 = getelementptr inbounds nuw i8, ptr %0, i64 780
  %56 = load i32, ptr %55, align 4, !tbaa !91
  %57 = or i32 %56, %54
  store i32 %57, ptr %55, align 4, !tbaa !91
  %58 = sub nsw i32 0, %54
  %.not4546 = icmp slt i32 %3, 0
  %59 = select i1 %.not4546, i32 %58, i32 %54
  store i32 %59, ptr %1, align 4, !tbaa !58
  ret void
}